; Function Attrs: nofree norecurse nosync nounwind memory(read, argmem: readwrite, inaccessiblemem: none) uwtable
define i64 @HUFv07_decompress1X_DCtx(ptr noundef captures(none) %0, ptr noundef %1, i64 noundef %2, ptr noundef %3, i64 noundef %4) local_unnamed_addr #12 {
  %6 = icmp eq i64 %2, 0
  br i1 %6, label %HUFv07_decompress1X4_DCtx.exit, label %7

7:                                                ; preds = %5
  %8 = icmp ugt i64 %4, %2
  br i1 %8, label %HUFv07_decompress1X4_DCtx.exit, label %9

9:                                                ; preds = %7
  %10 = icmp eq i64 %4, %2
  br i1 %10, label %11, label %12

11:                                               ; preds = %9
  tail call void @llvm.memcpy.p0.p0.i64(ptr align 1 %1, ptr align 1 %3, i64 %2, i1 false)
  br label %HUFv07_decompress1X4_DCtx.exit

12:                                               ; preds = %9
  %13 = icmp eq i64 %4, 1
  br i1 %13, label %14, label %16

14:                                               ; preds = %12
  %15 = load i8, ptr %3, align 1, !tbaa !14
  tail call void @llvm.memset.p0.i64(ptr align 1 %1, i8 %15, i64 %2, i1 false)
  br label %HUFv07_decompress1X4_DCtx.exit

16:                                               ; preds = %12
  %17 = shl i64 %4, 4
  %18 = udiv i64 %17, %2
  %19 = lshr i64 %2, 8
  %20 = trunc i64 %19 to i32
  %21 = and i64 %18, 4294967295
  %22 = getelementptr inbounds nuw [16 x [3 x %struct.algo_time_t]], ptr @algoTime, i64 0, i64 %21
  %23 = load i32, ptr %22, align 8, !tbaa !58
  %24 = getelementptr inbounds nuw i8, ptr %22, i64 4
  %25 = load i32, ptr %24, align 4, !tbaa !60
  %26 = mul i32 %25, %20
  %27 = add i32 %26, %23
  %28 = getelementptr inbounds nuw i8, ptr %22, i64 8
  %29 = load i32, ptr %28, align 8, !tbaa !58
  %30 = getelementptr inbounds nuw i8, ptr %22, i64 12
  %31 = load i32, ptr %30, align 4, !tbaa !60
  %32 = mul i32 %31, %20
  %33 = add i32 %32, %29
  %34 = lshr i32 %33, 3
  %35 = add i32 %34, %33
  %.not = icmp ult i32 %35, %27
  br i1 %.not, label %36, label %44

36:                                               ; preds = %16
  %37 = tail call i64 @HUFv07_readDTableX4(ptr noundef %0, ptr noundef %3, i64 noundef %4)
  %38 = icmp ult i64 %37, -119
  br i1 %38, label %39, label %HUFv07_decompress1X4_DCtx.exit

39:                                               ; preds = %36
  %.not19.i = icmp ult i64 %37, %4
  br i1 %.not19.i, label %40, label %HUFv07_decompress1X4_DCtx.exit

40:                                               ; preds = %39
  %41 = getelementptr inbounds nuw i8, ptr %3, i64 %37
  %42 = sub nuw i64 %4, %37
  %43 = tail call fastcc i64 @HUFv07_decompress1X4_usingDTable_internal(ptr noundef %1, i64 noundef %2, ptr noundef nonnull %41, i64 noundef %42, ptr noundef %0)
  br label %HUFv07_decompress1X4_DCtx.exit

44:                                               ; preds = %16
  %45 = tail call i64 @HUFv07_readDTableX2(ptr noundef %0, ptr noundef %3, i64 noundef %4)
  %46 = icmp ult i64 %45, -119
  br i1 %46, label %47, label %HUFv07_decompress1X4_DCtx.exit

47:                                               ; preds = %44
  %.not19.i30 = icmp ult i64 %45, %4
  br i1 %.not19.i30, label %48, label %HUFv07_decompress1X4_DCtx.exit

48:                                               ; preds = %47
  %49 = getelementptr inbounds nuw i8, ptr %3, i64 %45
  %50 = sub nuw i64 %4, %45
  %51 = tail call fastcc i64 @HUFv07_decompress1X2_usingDTable_internal(ptr noundef %1, i64 noundef %2, ptr noundef nonnull %49, i64 noundef %50, ptr noundef %0)
  br label %HUFv07_decompress1X4_DCtx.exit

HUFv07_decompress1X4_DCtx.exit:                   ; preds = %48, %47, %44, %40, %39, %36, %7, %5, %14, %11
  %.0 = phi i64 [ %2, %11 ], [ %2, %14 ], [ -70, %5 ], [ -20, %7 ], [ %43, %40 ], [ %37, %36 ], [ -72, %39 ], [ %51, %48 ], [ %45, %44 ], [ -72, %47 ]
  ret i64 %.0
}